; Function Attrs: nofree nosync nounwind memory(read, inaccessiblemem: none) uwtable
define internal fastcc i64 @check_complexity(ptr noundef readonly captures(none) %0, i64 noundef range(i64 0, -9223372036854775808) %1) unnamed_addr #6 {
  %3 = getelementptr i8, ptr %0, i64 8
  %.val = load ptr, ptr %3, align 8, !tbaa !154
  %4 = getelementptr i8, ptr %.val, i64 168
  %.val14 = load i64, ptr %4, align 8, !tbaa !157
  %5 = and i64 %.val14, 67108864
  %.not = icmp eq i64 %5, 0
  br i1 %.not, label %.critedge, label %6

6:                                                ; preds = %2
  %7 = getelementptr i8, ptr %0, i64 16
  %.val16 = load i64, ptr %7, align 8, !tbaa !181
  %8 = sub i64 %1, %.val16
  %9 = icmp sgt i64 %8, -1
  %10 = icmp sgt i64 %.val16, 0
  %or.cond17 = and i1 %9, %10
  br i1 %or.cond17, label %.lr.ph, label %.critedge

.lr.ph:                                           ; preds = %6
  %11 = getelementptr inbounds nuw i8, ptr %0, i64 24
  br label %12

12:                                               ; preds = %.lr.ph, %12
  %.019 = phi i64 [ 0, %.lr.ph ], [ %16, %12 ]
  %.01218 = phi i64 [ %8, %.lr.ph ], [ %15, %12 ]
  %13 = getelementptr [1 x ptr], ptr %11, i64 0, i64 %.019
  %14 = load ptr, ptr %13, align 8, !tbaa !35
  %15 = tail call fastcc i64 @check_complexity(ptr noundef %14, i64 noundef %.01218)
  %16 = add nuw nsw i64 %.019, 1
  %17 = icmp sgt i64 %15, -1
  %18 = icmp slt i64 %16, %.val16
  %or.cond = select i1 %17, i1 %18, i1 false
  br i1 %or.cond, label %12, label %.critedge, !llvm.loop !183

.critedge:                                        ; preds = %12, %6, %2
  %.013 = phi i64 [ %1, %2 ], [ %8, %6 ], [ %15, %12 ]
  ret i64 %.013
}